target datalayout = "e-m:e-p270:32:32-p271:32:32-p272:64:64-i64:64-i128:128-f80:128-n8:16:32:64-S128"
target triple = "x86_64-pc-linux-gnu"

; Function Attrs: nounwind uwtable
define void @ff_simple_idct_add_int16_8bit(ptr noundef %0, i64 noundef %1, ptr noundef %2) #0 {
  %4 = alloca ptr, align 8
  %5 = alloca i64, align 8
  %6 = alloca ptr, align 8
  %7 = alloca ptr, align 8
  %8 = alloca i32, align 4
  store ptr %0, ptr %4, align 8, !tbaa !4
  store i64 %1, ptr %5, align 8, !tbaa !9
  store ptr %2, ptr %6, align 8, !tbaa !11
  call void @llvm.lifetime.start.p0(i64 8, ptr %7) #4
  %9 = load ptr, ptr %4, align 8, !tbaa !4
  store ptr %9, ptr %7, align 8, !tbaa !4
  call void @llvm.lifetime.start.p0(i64 4, ptr %8) #4
  %10 = load i64, ptr %5, align 8, !tbaa !9
  %11 = udiv i64 %10, 1
  store i64 %11, ptr %5, align 8, !tbaa !9
  store i32 0, ptr %8, align 4, !tbaa !13
  br label %12

12:                                               ; preds = %21, %3
  %13 = load i32, ptr %8, align 4, !tbaa !13
  %14 = icmp slt i32 %13, 8
  br i1 %14, label %15, label %24

15:                                               ; preds = %12
  %16 = load ptr, ptr %6, align 8, !tbaa !11
  %17 = load i32, ptr %8, align 4, !tbaa !13
  %18 = mul nsw i32 %17, 8
  %19 = sext i32 %18 to i64
  %20 = getelementptr inbounds i16, ptr %16, i64 %19
  call void @idctRowCondDC_int16_8bit(ptr noundef %20, i32 noundef 0)
  br label %21

21:                                               ; preds = %15
  %22 = load i32, ptr %8, align 4, !tbaa !13
  %23 = add nsw i32 %22, 1
  store i32 %23, ptr %8, align 4, !tbaa !13
  br label %12, !llvm.loop !21

24:                                               ; preds = %12
  store i32 0, ptr %8, align 4, !tbaa !13
  br label %25

25:                                               ; preds = %38, %24
  %26 = load i32, ptr %8, align 4, !tbaa !13
  %27 = icmp slt i32 %26, 8
  br i1 %27, label %28, label %41

28:                                               ; preds = %25
  %29 = load ptr, ptr %7, align 8, !tbaa !4
  %30 = load i32, ptr %8, align 4, !tbaa !13
  %31 = sext i32 %30 to i64
  %32 = getelementptr inbounds i8, ptr %29, i64 %31
  %33 = load i64, ptr %5, align 8, !tbaa !9
  %34 = load ptr, ptr %6, align 8, !tbaa !11
  %35 = load i32, ptr %8, align 4, !tbaa !13
  %36 = sext i32 %35 to i64
  %37 = getelementptr inbounds i16, ptr %34, i64 %36
  call void @idctSparseColAdd_int16_8bit(ptr noundef %32, i64 noundef %33, ptr noundef %37)
  br label %38

38:                                               ; preds = %28
  %39 = load i32, ptr %8, align 4, !tbaa !13
  %40 = add nsw i32 %39, 1
  store i32 %40, ptr %8, align 4, !tbaa !13
  br label %25, !llvm.loop !22

41:                                               ; preds = %25
  call void @llvm.lifetime.end.p0(i64 4, ptr %8) #4
  call void @llvm.lifetime.end.p0(i64 8, ptr %7) #4
  ret void
}