; Function Attrs: nofree norecurse nosync nounwind memory(readwrite, inaccessiblemem: none) uwtable
define void @ff_simple_idct_add_int16_8bit(ptr noundef captures(none) %0, i64 noundef %1, ptr noundef captures(none) %2) local_unnamed_addr #2 {
  br label %4

4:                                                ; preds = %3, %4
  %indvars.iv = phi i64 [ 0, %3 ], [ %indvars.iv.next, %4 ]
  %.idx = shl nuw nsw i64 %indvars.iv, 4
  %5 = getelementptr inbounds nuw i8, ptr %2, i64 %.idx
  tail call fastcc void @idctRowCondDC_int16_8bit(ptr noundef %5)
  %indvars.iv.next = add nuw nsw i64 %indvars.iv, 1
  %exitcond.not = icmp eq i64 %indvars.iv.next, 8
  br i1 %exitcond.not, label %.preheader, label %4, !llvm.loop !12

.preheader:                                       ; preds = %4, %.preheader
  %indvars.iv15 = phi i64 [ %indvars.iv.next16, %.preheader ], [ 0, %4 ]
  %6 = getelementptr inbounds nuw i8, ptr %0, i64 %indvars.iv15
  %7 = getelementptr inbounds nuw i16, ptr %2, i64 %indvars.iv15
  tail call fastcc void @idctSparseColAdd_int16_8bit(ptr noundef %6, i64 noundef %1, ptr noundef %7)
  %indvars.iv.next16 = add nuw nsw i64 %indvars.iv15, 1
  %exitcond18.not = icmp eq i64 %indvars.iv.next16, 8
  br i1 %exitcond18.not, label %8, label %.preheader, !llvm.loop !13

8:                                                ; preds = %.preheader
  ret void
}